target datalayout = "e-m:e-p270:32:32-p271:32:32-p272:64:64-i64:64-i128:128-f80:128-n8:16:32:64-S128"
target triple = "x86_64-pc-linux-gnu"

%"struct.vcpkg::StringView" = type { ptr, i64 }

@_ZZN5vcpkg3msg32write_unlocalized_text_to_stdoutENS_5ColorENS_10StringViewEE8is_a_tty = internal global i8 0, align 1
@_ZGVZN5vcpkg3msg32write_unlocalized_text_to_stdoutENS_5ColorENS_10StringViewEE8is_a_tty = internal global i64 0, align 8

; Function Attrs: mustprogress uwtable
define dso_local void @_ZN5vcpkg3msg32write_unlocalized_text_to_stdoutENS_5ColorENS_10StringViewE(i8 noundef signext %0, ptr %1, i64 %2) #2 {
  %4 = alloca %"struct.vcpkg::StringView", align 8
  %5 = alloca i8, align 1
  %6 = alloca %"struct.vcpkg::StringView", align 8
  %7 = getelementptr inbounds { ptr, i64 }, ptr %4, i32 0, i32 0
  store ptr %1, ptr %7, align 8
  %8 = getelementptr inbounds { ptr, i64 }, ptr %4, i32 0, i32 1
  store i64 %2, ptr %8, align 8
  store i8 %0, ptr %5, align 1
  %9 = load atomic i8, ptr @_ZGVZN5vcpkg3msg32write_unlocalized_text_to_stdoutENS_5ColorENS_10StringViewEE8is_a_tty acquire, align 8
  %10 = icmp eq i8 %9, 0
  br i1 %10, label %11, label %18, !prof !13

11:                                               ; preds = %3
  %12 = call i32 @__cxa_guard_acquire(ptr @_ZGVZN5vcpkg3msg32write_unlocalized_text_to_stdoutENS_5ColorENS_10StringViewEE8is_a_tty) #8
  %13 = icmp ne i32 %12, 0
  br i1 %13, label %14, label %18

14:                                               ; preds = %11
  %15 = call i32 @isatty(i32 noundef 1) #8
  %16 = icmp ne i32 %15, 0
  %17 = zext i1 %16 to i8
  store i8 %17, ptr @_ZZN5vcpkg3msg32write_unlocalized_text_to_stdoutENS_5ColorENS_10StringViewEE8is_a_tty, align 1
  call void @__cxa_guard_release(ptr @_ZGVZN5vcpkg3msg32write_unlocalized_text_to_stdoutENS_5ColorENS_10StringViewEE8is_a_tty) #8
  br label %18

18:                                               ; preds = %14, %11, %3
  %19 = load i8, ptr %5, align 1
  call void @llvm.memcpy.p0.p0.i64(ptr align 8 %6, ptr align 8 %4, i64 16, i1 false)
  %20 = load i8, ptr @_ZZN5vcpkg3msg32write_unlocalized_text_to_stdoutENS_5ColorENS_10StringViewEE8is_a_tty, align 1
  %21 = trunc i8 %20 to i1
  %22 = getelementptr inbounds { ptr, i64 }, ptr %6, i32 0, i32 0
  %23 = load ptr, ptr %22, align 8
  %24 = getelementptr inbounds { ptr, i64 }, ptr %6, i32 0, i32 1
  %25 = load i64, ptr %24, align 8
  call void @_ZN5vcpkg3msgL27write_unlocalized_text_implENS_5ColorENS_10StringViewEib(i8 noundef signext %19, ptr %23, i64 %25, i32 noundef 1, i1 noundef zeroext %21)
  ret void
}