; Function Attrs: mustprogress uwtable
define dso_local void @_ZN5vcpkg3msg32write_unlocalized_text_to_stdoutENS_5ColorENS_10StringViewE(i8 noundef signext %0, ptr nocapture readonly %1, i64 %2) local_unnamed_addr #3 {
  %4 = load atomic i8, ptr @_ZGVZN5vcpkg3msg32write_unlocalized_text_to_stdoutENS_5ColorENS_10StringViewEE8is_a_tty acquire, align 8
  %5 = icmp eq i8 %4, 0
  br i1 %5, label %6, label %12, !prof !44

6:                                                ; preds = %3
  %7 = tail call i32 @__cxa_guard_acquire(ptr nonnull @_ZGVZN5vcpkg3msg32write_unlocalized_text_to_stdoutENS_5ColorENS_10StringViewEE8is_a_tty) #25
  %.not = icmp eq i32 %7, 0
  br i1 %.not, label %12, label %8

8:                                                ; preds = %6
  %9 = tail call i32 @isatty(i32 noundef 1) #25
  %10 = icmp ne i32 %9, 0
  %11 = zext i1 %10 to i8
  store i8 %11, ptr @_ZZN5vcpkg3msg32write_unlocalized_text_to_stdoutENS_5ColorENS_10StringViewEE8is_a_tty, align 1
  tail call void @__cxa_guard_release(ptr nonnull @_ZGVZN5vcpkg3msg32write_unlocalized_text_to_stdoutENS_5ColorENS_10StringViewEE8is_a_tty) #25
  br label %12

12:                                               ; preds = %8, %6, %3
  %13 = load i8, ptr @_ZZN5vcpkg3msg32write_unlocalized_text_to_stdoutENS_5ColorENS_10StringViewEE8is_a_tty, align 1
  %14 = and i8 %13, 1
  %15 = icmp ne i8 %14, 0
  tail call fastcc void @_ZN5vcpkg3msgL27write_unlocalized_text_implENS_5ColorENS_10StringViewEib(i8 noundef signext %0, ptr %1, i64 %2, i32 noundef 1, i1 noundef zeroext %15)
  ret void
}